target datalayout = "e-m:e-p270:32:32-p271:32:32-p272:64:64-i64:64-i128:128-f80:128-n8:16:32:64-S128"
target triple = "x86_64-pc-linux-gnu"

@.str.385 = private unnamed_addr constant [6 x i8] c"H.264\00", align 1
@.str.386 = private unnamed_addr constant [5 x i8] c"h264\00", align 1
@proto_h264 = internal global i32 0, align 4
@.str.387 = private unnamed_addr constant [21 x i8] c"dynamic.payload.type\00", align 1
@h264_handle = internal global ptr null, align 8
@.str.388 = private unnamed_addr constant [16 x i8] c"h264_bytestream\00", align 1
@.str.389 = private unnamed_addr constant [33 x i8] c"H.264 Annex B Byte stream format\00", align 1

; Function Attrs: null_pointer_is_valid sspstrong uwtable
define hidden void @proto_register_h264() #0 {
  %1 = alloca ptr, align 8
  %2 = alloca ptr, align 8
  call void @llvm.lifetime.start.p0(i64 8, ptr %1) #7
  call void @llvm.lifetime.start.p0(i64 8, ptr %2) #7
  %3 = call i32 @proto_register_protocol(ptr noundef @.str.385, ptr noundef @.str.385, ptr noundef @.str.386)
  store i32 %3, ptr @proto_h264, align 4
  %4 = load i32, ptr @proto_h264, align 4
  call void @proto_register_field_array(i32 noundef %4, ptr noundef @proto_register_h264.hf, i32 noundef 186)
  call void @proto_register_subtree_array(ptr noundef @proto_register_h264.ett, i32 noundef 12)
  %5 = load i32, ptr @proto_h264, align 4
  %6 = call ptr @expert_register_protocol(i32 noundef %5)
  store ptr %6, ptr %2, align 8
  %7 = load ptr, ptr %2, align 8
  call void @expert_register_field_array(ptr noundef %7, ptr noundef @proto_register_h264.ei, i32 noundef 6)
  %8 = load i32, ptr @proto_h264, align 4
  %9 = call ptr @prefs_register_protocol(i32 noundef %8, ptr noundef null)
  store ptr %9, ptr %1, align 8
  %10 = load ptr, ptr %1, align 8
  call void @prefs_register_obsolete_preference(ptr noundef %10, ptr noundef @.str.387)
  %11 = load i32, ptr @proto_h264, align 4
  %12 = call ptr @register_dissector(ptr noundef @.str.386, ptr noundef @dissect_h264, i32 noundef %11)
  store ptr %12, ptr @h264_handle, align 8
  %13 = load i32, ptr @proto_h264, align 4
  %14 = call ptr @register_dissector_with_description(ptr noundef @.str.388, ptr noundef @.str.389, ptr noundef @dissect_h264_bytestream, i32 noundef %13)
  call void @llvm.lifetime.end.p0(i64 8, ptr %2) #7
  call void @llvm.lifetime.end.p0(i64 8, ptr %1) #7
  ret void
}