; Function Attrs: null_pointer_is_valid sspstrong uwtable
define hidden void @proto_register_h264() local_unnamed_addr #0 {
  %1 = tail call i32 @proto_register_protocol(ptr noundef nonnull @.str.385, ptr noundef nonnull @.str.385, ptr noundef nonnull @.str.386)
  store i32 %1, ptr @proto_h264, align 4
  tail call void @proto_register_field_array(i32 noundef %1, ptr noundef nonnull @proto_register_h264.hf, i32 noundef 186)
  tail call void @proto_register_subtree_array(ptr noundef nonnull @proto_register_h264.ett, i32 noundef 12)
  %2 = load i32, ptr @proto_h264, align 4
  %3 = tail call ptr @expert_register_protocol(i32 noundef %2)
  tail call void @expert_register_field_array(ptr noundef %3, ptr noundef nonnull @proto_register_h264.ei, i32 noundef 6)
  %4 = load i32, ptr @proto_h264, align 4
  %5 = tail call ptr @prefs_register_protocol(i32 noundef %4, ptr noundef null)
  tail call void @prefs_register_obsolete_preference(ptr noundef %5, ptr noundef nonnull @.str.387)
  %6 = load i32, ptr @proto_h264, align 4
  %7 = tail call ptr @register_dissector(ptr noundef nonnull @.str.386, ptr noundef nonnull @dissect_h264, i32 noundef %6)
  store ptr %7, ptr @h264_handle, align 8
  %8 = load i32, ptr @proto_h264, align 4
  %9 = tail call ptr @register_dissector_with_description(ptr noundef nonnull @.str.388, ptr noundef nonnull @.str.389, ptr noundef nonnull @dissect_h264_bytestream, i32 noundef %8)
  ret void
}